; Function Attrs: nounwind uwtable
define hidden void @mbedtls_ecjpake_init(ptr noundef initializes((0, 4)) %0) local_unnamed_addr #0 {
  store i32 0, ptr %0, align 8, !tbaa !3
  %2 = getelementptr inbounds nuw i8, ptr %0, i64 8
  tail call void @mbedtls_ecp_group_init(ptr noundef nonnull %2) #15
  %3 = getelementptr inbounds nuw i8, ptr %0, i64 204
  store i32 0, ptr %3, align 4, !tbaa !16
  %4 = getelementptr inbounds nuw i8, ptr %0, i64 208
  tail call void @mbedtls_ecp_point_init(ptr noundef nonnull %4) #15
  %5 = getelementptr inbounds nuw i8, ptr %0, i64 256
  tail call void @mbedtls_ecp_point_init(ptr noundef nonnull %5) #15
  %6 = getelementptr inbounds nuw i8, ptr %0, i64 304
  tail call void @mbedtls_ecp_point_init(ptr noundef nonnull %6) #15
  %7 = getelementptr inbounds nuw i8, ptr %0, i64 352
  tail call void @mbedtls_ecp_point_init(ptr noundef nonnull %7) #15
  %8 = getelementptr inbounds nuw i8, ptr %0, i64 400
  tail call void @mbedtls_ecp_point_init(ptr noundef nonnull %8) #15
  %9 = getelementptr inbounds nuw i8, ptr %0, i64 448
  tail call void @mbedtls_mpi_init(ptr noundef nonnull %9) #15
  %10 = getelementptr inbounds nuw i8, ptr %0, i64 464
  tail call void @mbedtls_mpi_init(ptr noundef nonnull %10) #15
  %11 = getelementptr inbounds nuw i8, ptr %0, i64 480
  tail call void @mbedtls_mpi_init(ptr noundef nonnull %11) #15
  ret void
}